-----BEGIN RSA PRIVATE KEY-----
Proc-Type: 4,ENCRYPTED
DEK-Info: AES-128-CBC,CB711580E87CF87699128C71CF6E8A89

iRUkwvrTnZfD1hYhfRDM/0XBBN/hWutQoWPdJPTDhxVP8XV5nqMhHXjlKN8sw4h0
tkA2CHOwZWhqoSusQ9MjaMGWvlTcDhTeEhyErhUdGsmxJneGankUxsCJYQHEJXCH
Vm1PnzNX06vpD0dFC3bdS1RwE/qY66dJY9A0/y1rjAcBT9SeHc+auqvUMKYrxsC5
xVaNFOpWRe7HpUp1wC6glhxiwQWaebPVT+TzSCpYOv/y9cATq/G+8kAVWSIeN5Yt
L54ly6egfhbHqpOEU5FxrdXR9ZgGK98zDVrtfYH23+o2IWRl8DUTdvYh+fcIUXBi
qjvF5HwWuRUV5ffcVzX5nPIw5YKe12LywC1l1wJke8/WPfsMk+2KOCcluxrx557Y
ixgWm88DVsnBLgycnyiWGYer0UrVD+DnqcI01Vug3L6/EkUGR6ykd1bYh7wlL63y
h9E09F0IPwFYfrwqZzSw0Xa7wDyqDo13Q0sYMEvkuGWjd5u0g16Nzb1nh/DlnLuz
dkORKktnRslUely11tFLOrPiTWGgzuro9h+28HvB9Wkmer6PzvQ1u4YypooTimYq
6fA+iYHwDhyJ0nZ8NjoRrpB3Qoa8wkJYMvNTP/bDDG6K9lkNaCl4RgMYwtPn7PQI
dVkMK54Gh7emPFwg76ouhRdI5zgn9WJZUwSfXJmpKestKUoeUiEK11f89ZS3sIJT
H5lDjrtJcpv7Os2TfRAJlNXZql3aarJljTbdqyOMi0iKDaiK8c1wZ7a2ZmRIHKIe
T+kJamae1teYpi6WYgn6h2kzFrD5qlU4br6UP/DGG1wCYpXphDLivtADAs7HWDNM
-----END RSA PRIVATE KEY-----
Certificate:
    Data:
        Version: 3 (0x2)
        Serial Number: 4096 (0x1000)
    Signature Algorithm: sha1WithRSAEncryption
        Issuer: C=US, ST=UT, L=Logan, O=CS5460, CN=Austin Derbique
        Validity
            Not Before: Oct 12 01:41:41 2017 GMT
            Not After : Oct 12 01:41:41 2018 GMT
        Subject: C=US, ST=UT, O=CS5460, CN=PKILabServer.com
        Subject Public Key Info:
            Public Key Algorithm: rsaEncryption
                Public-Key: (1024 bit)
                Modulus:
                    00:ae:a9:a6:0e:b4:9e:48:70:2b:8c:f7:bf:a2:ca:
                    d2:61:5f:ad:13:dc:e7:46:a5:4f:d5:bf:27:3e:84:
                    a6:ff:da:12:a3:05:93:a7:63:cf:9e:d8:cf:24:08:
                    f2:8c:4b:9f:2b:a4:62:eb:62:f8:e9:a2:e1:03:84:
                    41:be:17:02:e3:be:56:de:cc:9b:c3:bb:9c:3c:c9:
                    45:ba:c8:46:9d:d5:1a:b0:c4:db:ff:92:d6:44:6a:
                    09:25:78:9e:a9:a2:5c:55:ae:58:44:9b:c6:45:2f:
                    38:58:ff:da:6a:66:44:c2:f2:ad:54:e5:47:00:39:
                    fb:03:34:88:f5:c8:3f:39:45
                Exponent: 65537 (0x10001)
        X509v3 extensions:
            X509v3 Basic Constraints: 
                CA:FALSE
            Netscape Comment: 
                OpenSSL Generated Certificate
            X509v3 Subject Key Identifier: 
                B2:C1:86:9B:BF:D6:D2:8B:78:C0:E7:90:B6:20:6F:59:B3:93:05:44
            X509v3 Authority Key Identifier: 
                keyid:51:4A:C1:F6:7D:2D:7E:04:58:38:AA:3D:6F:72:72:A7:17:40:A4:36

    Signature Algorithm: sha1WithRSAEncryption
         b6:e0:4b:a8:14:2d:3b:43:f3:6f:64:9a:8b:df:60:fc:48:78:
         7c:b2:ee:82:d9:df:d5:4e:c8:0a:0d:61:05:b2:ad:cb:4c:68:
         ff:ed:64:a5:32:d4:88:7a:d4:90:f5:67:2d:41:3e:9e:1a:d9:
         f8:a3:42:b6:b6:6b:f9:79:19:c5:60:a9:5c:28:86:60:ce:29:
         46:7f:ef:6d:b0:ed:44:5c:0a:a7:71:ce:0c:b8:b8:1a:ac:0a:
         e0:8b:9e:7f:38:ea:96:0c:93:31:29:e7:de:90:cc:22:f9:5a:
         45:af:17:1a:73:2d:b5:8b:35:a4:ff:28:60:ce:cf:ac:75:42:
         c3:b0
-----BEGIN CERTIFICATE-----
MIICjTCCAfagAwIBAgICEAAwDQYJKoZIhvcNAQEFBQAwVTELMAkGA1UEBhMCVVMx
CzAJBgNVBAgMAlVUMQ4wDAYDVQQHDAVMb2dhbjEPMA0GA1UECgwGQ1M1NDYwMRgw
FgYDVQQDDA9BdXN0aW4gRGVyYmlxdWUwHhcNMTcxMDEyMDE0MTQxWhcNMTgxMDEy
MDE0MTQxWjBGMQswCQYDVQQGEwJVUzELMAkGA1UECAwCVVQxDzANBgNVBAoMBkNT
NTQ2MDEZMBcGA1UEAwwQUEtJTGFiU2VydmVyLmNvbTCBnzANBgkqhkiG9w0BAQEF
AAOBjQAwgYkCgYEArqmmDrSeSHArjPe/osrSYV+tE9znRqVP1b8nPoSm/9oSowWT
p2PPntjPJAjyjEufK6Ri62L46aLhA4RBvhcC475W3sybw7ucPMlFushGndUasMTb
/5LWRGoJJXieqaJcVa5YRJvGRS84WP/aamZEwvKtVOVHADn7AzSI9cg/OUUCAwEA
AaN7MHkwCQYDVR0TBAIwADAsBglghkgBhvhCAQ0EHxYdT3BlblNTTCBHZW5lcmF0
ZWQgQ2VydGlmaWNhdGUwHQYDVR0OBBYEFLLBhpu/1tKLeMDnkLYgb1mzkwVEMB8G
A1UdIwQYMBaAFFFKwfZ9LX4EWDiqPW9ycqcXQKQ2MA0GCSqGSIb3DQEBBQUAA4GB
ALbgS6gULTtD829kmovfYPxIeHyy7oLZ39VOyAoNYQWyrctMaP/tZKUy1Ih61JD1
Zy1BPp4a2fijQra2a/l5GcVgqVwohmDOKUZ/722w7URcCqdxzgy4uBqsCuCLnn84
6pYMkzEp596QzCL5WkWvFxpzLbWLNaT/KGDOz6x1QsOw
-----END CERTIFICATE-----
